; Function Attrs: mustprogress uwtable
define hidden void @_ZN3euf9bv_plugin15push_undo_splitEPNS_5enodeE(ptr noundef nonnull align 8 dereferenceable(80) %this, ptr noundef %n) local_unnamed_addr #3 align 2 {
entry:
  %m_undo_split = getelementptr inbounds i8, ptr %this, i64 72
  %0 = load ptr, ptr %m_undo_split, align 8
  %cmp.i = icmp eq ptr %0, null
  br i1 %cmp.i, label %if.then.i, label %lor.lhs.false.i

lor.lhs.false.i:                                  ; preds = %entry
  %arrayidx.i = getelementptr inbounds i8, ptr %0, i64 -4
  %1 = load i32, ptr %arrayidx.i, align 4
  %arrayidx4.i = getelementptr inbounds i8, ptr %0, i64 -8
  %2 = load i32, ptr %arrayidx4.i, align 4
  %cmp5.i = icmp eq i32 %1, %2
  br i1 %cmp5.i, label %if.then.i, label %_ZN6vectorIPN3euf5enodeELb0EjE9push_backERKS2_.exit

if.then.i:                                        ; preds = %lor.lhs.false.i, %entry
  tail call void @_ZN6vectorIPN3euf5enodeELb0EjE13expand_vectorEv(ptr noundef nonnull align 8 dereferenceable(8) %m_undo_split)
  %.pre.i = load ptr, ptr %m_undo_split, align 8
  %arrayidx8.phi.trans.insert.i = getelementptr inbounds i8, ptr %.pre.i, i64 -4
  %.pre1.i = load i32, ptr %arrayidx8.phi.trans.insert.i, align 4
  br label %_ZN6vectorIPN3euf5enodeELb0EjE9push_backERKS2_.exit

_ZN6vectorIPN3euf5enodeELb0EjE9push_backERKS2_.exit: ; preds = %lor.lhs.false.i, %if.then.i
  %3 = phi i32 [ %.pre1.i, %if.then.i ], [ %1, %lor.lhs.false.i ]
  %4 = phi ptr [ %.pre.i, %if.then.i ], [ %0, %lor.lhs.false.i ]
  %idx.ext.i = zext i32 %3 to i64
  %add.ptr.i = getelementptr inbounds ptr, ptr %4, i64 %idx.ext.i
  store ptr %n, ptr %add.ptr.i, align 8
  %5 = load ptr, ptr %m_undo_split, align 8
  %arrayidx10.i = getelementptr inbounds i8, ptr %5, i64 -4
  %6 = load i32, ptr %arrayidx10.i, align 4
  %inc.i = add i32 %6, 1
  store i32 %inc.i, ptr %arrayidx10.i, align 4
  %bv = getelementptr inbounds i8, ptr %this, i64 16
  %7 = load i32, ptr %bv, align 8
  tail call void @_ZN3euf6plugin16push_plugin_undoEj(ptr noundef nonnull align 8 dereferenceable(16) %this, i32 noundef %7)
  ret void
}